target datalayout = "e-m:e-p270:32:32-p271:32:32-p272:64:64-i64:64-i128:128-f80:128-n8:16:32:64-S128"
target triple = "x86_64-pc-linux-gnu"

%struct.AVProbeData = type { ptr, ptr, i32, ptr }

@gif87a_sig = internal constant [6 x i8] c"GIF87a", align 1
@gif89a_sig = internal constant [6 x i8] c"GIF89a", align 1

; Function Attrs: nounwind uwtable
define internal i32 @gif_probe(ptr noundef %0) #0 {
  %2 = alloca i32, align 4
  %3 = alloca ptr, align 8
  store ptr %0, ptr %3, align 8, !tbaa !139
  %4 = load ptr, ptr %3, align 8, !tbaa !139
  %5 = getelementptr inbounds nuw %struct.AVProbeData, ptr %4, i32 0, i32 1
  %6 = load ptr, ptr %5, align 8, !tbaa !96
  %7 = call i32 @memcmp(ptr noundef %6, ptr noundef @gif87a_sig, i64 noundef 6) #13
  %8 = icmp ne i32 %7, 0
  br i1 %8, label %9, label %16

9:                                                ; preds = %1
  %10 = load ptr, ptr %3, align 8, !tbaa !139
  %11 = getelementptr inbounds nuw %struct.AVProbeData, ptr %10, i32 0, i32 1
  %12 = load ptr, ptr %11, align 8, !tbaa !96
  %13 = call i32 @memcmp(ptr noundef %12, ptr noundef @gif89a_sig, i64 noundef 6) #13
  %14 = icmp ne i32 %13, 0
  br i1 %14, label %15, label %16

15:                                               ; preds = %9
  store i32 0, ptr %2, align 4
  br label %32

16:                                               ; preds = %9, %1
  %17 = load ptr, ptr %3, align 8, !tbaa !139
  %18 = getelementptr inbounds nuw %struct.AVProbeData, ptr %17, i32 0, i32 1
  %19 = load ptr, ptr %18, align 8, !tbaa !96
  %20 = getelementptr inbounds i8, ptr %19, i64 6
  %21 = load i16, ptr %20, align 1, !tbaa !77
  %22 = icmp ne i16 %21, 0
  br i1 %22, label %23, label %30

23:                                               ; preds = %16
  %24 = load ptr, ptr %3, align 8, !tbaa !139
  %25 = getelementptr inbounds nuw %struct.AVProbeData, ptr %24, i32 0, i32 1
  %26 = load ptr, ptr %25, align 8, !tbaa !96
  %27 = getelementptr inbounds i8, ptr %26, i64 8
  %28 = load i16, ptr %27, align 1, !tbaa !77
  %29 = icmp ne i16 %28, 0
  br i1 %29, label %31, label %30

30:                                               ; preds = %23, %16
  store i32 0, ptr %2, align 4
  br label %32

31:                                               ; preds = %23
  store i32 99, ptr %2, align 4
  br label %32

32:                                               ; preds = %31, %30, %15
  %33 = load i32, ptr %2, align 4
  ret i32 %33
}