; Function Attrs: mustprogress nofree norecurse nounwind willreturn memory(read, inaccessiblemem: none) uwtable
define internal range(i32 0, 100) i32 @gif_probe(ptr noundef readonly captures(none) %0) #9 {
  %2 = getelementptr inbounds nuw i8, ptr %0, i64 8
  %3 = load ptr, ptr %2, align 8, !tbaa !90
  %bcmp = tail call i32 @bcmp(ptr noundef nonnull dereferenceable(6) %3, ptr noundef nonnull dereferenceable(6) @gif87a_sig, i64 6)
  %.not = icmp eq i32 %bcmp, 0
  br i1 %.not, label %5, label %4

4:                                                ; preds = %1
  %bcmp4 = tail call i32 @bcmp(ptr noundef nonnull dereferenceable(6) %3, ptr noundef nonnull dereferenceable(6) @gif89a_sig, i64 6)
  %.not5 = icmp eq i32 %bcmp4, 0
  br i1 %.not5, label %5, label %11

5:                                                ; preds = %4, %1
  %6 = getelementptr inbounds nuw i8, ptr %3, i64 6
  %7 = load i16, ptr %6, align 1, !tbaa !68
  %.not6 = icmp eq i16 %7, 0
  br i1 %.not6, label %11, label %8

8:                                                ; preds = %5
  %9 = getelementptr inbounds nuw i8, ptr %3, i64 8
  %10 = load i16, ptr %9, align 1, !tbaa !68
  %.not7 = icmp eq i16 %10, 0
  %spec.select = select i1 %.not7, i32 0, i32 99
  br label %11

11:                                               ; preds = %8, %5, %4
  %.0 = phi i32 [ 0, %4 ], [ 0, %5 ], [ %spec.select, %8 ]
  ret i32 %.0
}